; Function Attrs: mustprogress nounwind uwtable
define hidden void @_ZN6hermes2vm9converterB5cxx11EPKNS0_15StringPrimitiveE(ptr noalias sret(%"class.std::__cxx11::basic_string") align 8 %agg.result, ptr noundef nonnull %str) local_unnamed_addr #0 {
entry:
  %buf = alloca %"class.llvh::SmallVector", align 8
  %add.ptr.i.i.i.i.i = getelementptr inbounds nuw i8, ptr %buf, i64 16
  store ptr %add.ptr.i.i.i.i.i, ptr %buf, align 8
  %Size.i.i.i.i.i = getelementptr inbounds nuw i8, ptr %buf, i64 8
  store i32 0, ptr %Size.i.i.i.i.i, align 8
  %Capacity2.i.i.i.i.i = getelementptr inbounds nuw i8, ptr %buf, i64 12
  store i32 16, ptr %Capacity2.i.i.i.i.i, align 4
  call void @_ZNK6hermes2vm15StringPrimitive17appendUTF16StringERN4llvh15SmallVectorImplIDsEE(ptr noundef nonnull align 4 dereferenceable(8) %str, ptr noundef nonnull align 8 dereferenceable(16) %buf) #7
  call void @_ZNSt7__cxx1112basic_stringIcSt11char_traitsIcESaIcEEC1Ev(ptr noundef nonnull align 8 dereferenceable(32) %agg.result) #7
  %0 = load ptr, ptr %buf, align 8
  %1 = load i32, ptr %Size.i.i.i.i.i, align 8
  %conv.i.i = zext i32 %1 to i64
  %call = call noundef zeroext i1 @_ZN6hermes34convertUTF16ToUTF8WithReplacementsERNSt7__cxx1112basic_stringIcSt11char_traitsIcESaIcEEEN4llvh8ArrayRefIDsEEm(ptr noundef nonnull align 8 dereferenceable(32) %agg.result, ptr %0, i64 %conv.i.i, i64 noundef 0) #7
  %2 = load ptr, ptr %buf, align 8
  %cmp.i.i.i = icmp eq ptr %2, %add.ptr.i.i.i.i.i
  br i1 %cmp.i.i.i, label %_ZN4llvh11SmallVectorIDsLj16EED2Ev.exit, label %if.then.i.i

if.then.i.i:                                      ; preds = %entry
  call void @free(ptr noundef %2) #7
  br label %_ZN4llvh11SmallVectorIDsLj16EED2Ev.exit

_ZN4llvh11SmallVectorIDsLj16EED2Ev.exit:          ; preds = %entry, %if.then.i.i
  ret void
}